target datalayout = "e-m:e-p270:32:32-p271:32:32-p272:64:64-i64:64-i128:128-f80:128-n8:16:32:64-S128"
target triple = "x86_64-unknown-linux-gnu"

%class.btVector3 = type { [4 x float] }

; Function Attrs: mustprogress nounwind uwtable
define internal noundef float @_ZL4dDOTPKfS0_(ptr noundef %a, ptr noundef %b) #1 {
entry:
  %a.addr = alloca ptr, align 8
  %b.addr = alloca ptr, align 8
  store ptr %a, ptr %a.addr, align 8
  store ptr %b, ptr %b.addr, align 8
  %0 = load ptr, ptr %a.addr, align 8
  %arrayidx = getelementptr inbounds float, ptr %0, i64 0
  %1 = load float, ptr %arrayidx, align 4
  %2 = load ptr, ptr %b.addr, align 8
  %arrayidx1 = getelementptr inbounds float, ptr %2, i64 0
  %3 = load float, ptr %arrayidx1, align 4
  %4 = load ptr, ptr %a.addr, align 8
  %arrayidx2 = getelementptr inbounds float, ptr %4, i64 1
  %5 = load float, ptr %arrayidx2, align 4
  %6 = load ptr, ptr %b.addr, align 8
  %arrayidx3 = getelementptr inbounds float, ptr %6, i64 1
  %7 = load float, ptr %arrayidx3, align 4
  %mul4 = fmul float %5, %7
  %8 = call float @llvm.fmuladd.f32(float %1, float %3, float %mul4)
  %9 = load ptr, ptr %a.addr, align 8
  %arrayidx5 = getelementptr inbounds float, ptr %9, i64 2
  %10 = load float, ptr %arrayidx5, align 4
  %11 = load ptr, ptr %b.addr, align 8
  %arrayidx6 = getelementptr inbounds float, ptr %11, i64 2
  %12 = load float, ptr %arrayidx6, align 4
  %13 = call float @llvm.fmuladd.f32(float %10, float %12, float %8)
  ret float %13
}

; Function Attrs: mustprogress nounwind uwtable
define linkonce_odr dso_local noundef ptr @_ZN9btVector3cvPfEv(ptr noundef nonnull align 4 dereferenceable(16) %this) #1 comdat align 2 {
entry:
  %this.addr = alloca ptr, align 8
  store ptr %this, ptr %this.addr, align 8
  %this1 = load ptr, ptr %this.addr, align 8
  %m_floats = getelementptr inbounds %class.btVector3, ptr %this1, i32 0, i32 0
  %arrayidx = getelementptr inbounds [4 x float], ptr %m_floats, i64 0, i64 0
  ret ptr %arrayidx
}

; Function Attrs: mustprogress nounwind uwtable
define linkonce_odr dso_local noundef ptr @_ZNK9btVector3cvPKfEv(ptr noundef nonnull align 4 dereferenceable(16) %this) #1 comdat align 2 {
entry:
  %this.addr = alloca ptr, align 8
  store ptr %this, ptr %this.addr, align 8
  %this1 = load ptr, ptr %this.addr, align 8
  %m_floats = getelementptr inbounds %class.btVector3, ptr %this1, i32 0, i32 0
  %arrayidx = getelementptr inbounds [4 x float], ptr %m_floats, i64 0, i64 0
  ret ptr %arrayidx
}

; Function Attrs: mustprogress nounwind uwtable
define linkonce_odr dso_local void @_ZN9btVector3C2Ev(ptr noundef nonnull align 4 dereferenceable(16) %this) unnamed_addr #1 comdat align 2 {
entry:
  %this.addr = alloca ptr, align 8
  store ptr %this, ptr %this.addr, align 8
  ret void
}

; Function Attrs: mustprogress uwtable
define dso_local void @_Z20dLineClosestApproachRK9btVector3S1_S1_S1_PfS2_(ptr noundef nonnull align 4 dereferenceable(16) %pa, ptr noundef nonnull align 4 dereferenceable(16) %ua, ptr noundef nonnull align 4 dereferenceable(16) %pb, ptr noundef nonnull align 4 dereferenceable(16) %ub, ptr noundef %alpha, ptr noundef %beta) #2 {
entry:
  %pa.addr = alloca ptr, align 8
  %ua.addr = alloca ptr, align 8
  %pb.addr = alloca ptr, align 8
  %ub.addr = alloca ptr, align 8
  %alpha.addr = alloca ptr, align 8
  %beta.addr = alloca ptr, align 8
  %p = alloca %class.btVector3, align 4
  %uaub = alloca float, align 4
  %q1 = alloca float, align 4
  %q2 = alloca float, align 4
  %d = alloca float, align 4
  store ptr %pa, ptr %pa.addr, align 8
  store ptr %ua, ptr %ua.addr, align 8
  store ptr %pb, ptr %pb.addr, align 8
  store ptr %ub, ptr %ub.addr, align 8
  store ptr %alpha, ptr %alpha.addr, align 8
  store ptr %beta, ptr %beta.addr, align 8
  call void @_ZN9btVector3C2Ev(ptr noundef nonnull align 4 dereferenceable(16) %p)
  %0 = load ptr, ptr %pb.addr, align 8
  %call = call noundef ptr @_ZNK9btVector3cvPKfEv(ptr noundef nonnull align 4 dereferenceable(16) %0)
  %arrayidx = getelementptr inbounds float, ptr %call, i64 0
  %1 = load float, ptr %arrayidx, align 4
  %2 = load ptr, ptr %pa.addr, align 8
  %call1 = call noundef ptr @_ZNK9btVector3cvPKfEv(ptr noundef nonnull align 4 dereferenceable(16) %2)
  %arrayidx2 = getelementptr inbounds float, ptr %call1, i64 0
  %3 = load float, ptr %arrayidx2, align 4
  %sub = fsub float %1, %3
  %call3 = call noundef ptr @_ZN9btVector3cvPfEv(ptr noundef nonnull align 4 dereferenceable(16) %p)
  %arrayidx4 = getelementptr inbounds float, ptr %call3, i64 0
  store float %sub, ptr %arrayidx4, align 4
  %4 = load ptr, ptr %pb.addr, align 8
  %call5 = call noundef ptr @_ZNK9btVector3cvPKfEv(ptr noundef nonnull align 4 dereferenceable(16) %4)
  %arrayidx6 = getelementptr inbounds float, ptr %call5, i64 1
  %5 = load float, ptr %arrayidx6, align 4
  %6 = load ptr, ptr %pa.addr, align 8
  %call7 = call noundef ptr @_ZNK9btVector3cvPKfEv(ptr noundef nonnull align 4 dereferenceable(16) %6)
  %arrayidx8 = getelementptr inbounds float, ptr %call7, i64 1
  %7 = load float, ptr %arrayidx8, align 4
  %sub9 = fsub float %5, %7
  %call10 = call noundef ptr @_ZN9btVector3cvPfEv(ptr noundef nonnull align 4 dereferenceable(16) %p)
  %arrayidx11 = getelementptr inbounds float, ptr %call10, i64 1
  store float %sub9, ptr %arrayidx11, align 4
  %8 = load ptr, ptr %pb.addr, align 8
  %call12 = call noundef ptr @_ZNK9btVector3cvPKfEv(ptr noundef nonnull align 4 dereferenceable(16) %8)
  %arrayidx13 = getelementptr inbounds float, ptr %call12, i64 2
  %9 = load float, ptr %arrayidx13, align 4
  %10 = load ptr, ptr %pa.addr, align 8
  %call14 = call noundef ptr @_ZNK9btVector3cvPKfEv(ptr noundef nonnull align 4 dereferenceable(16) %10)
  %arrayidx15 = getelementptr inbounds float, ptr %call14, i64 2
  %11 = load float, ptr %arrayidx15, align 4
  %sub16 = fsub float %9, %11
  %call17 = call noundef ptr @_ZN9btVector3cvPfEv(ptr noundef nonnull align 4 dereferenceable(16) %p)
  %arrayidx18 = getelementptr inbounds float, ptr %call17, i64 2
  store float %sub16, ptr %arrayidx18, align 4
  %12 = load ptr, ptr %ua.addr, align 8
  %call19 = call noundef ptr @_ZNK9btVector3cvPKfEv(ptr noundef nonnull align 4 dereferenceable(16) %12)
  %13 = load ptr, ptr %ub.addr, align 8
  %call20 = call noundef ptr @_ZNK9btVector3cvPKfEv(ptr noundef nonnull align 4 dereferenceable(16) %13)
  %call21 = call noundef float @_ZL4dDOTPKfS0_(ptr noundef %call19, ptr noundef %call20)
  store float %call21, ptr %uaub, align 4
  %14 = load ptr, ptr %ua.addr, align 8
  %call22 = call noundef ptr @_ZNK9btVector3cvPKfEv(ptr noundef nonnull align 4 dereferenceable(16) %14)
  %call23 = call noundef ptr @_ZN9btVector3cvPfEv(ptr noundef nonnull align 4 dereferenceable(16) %p)
  %call24 = call noundef float @_ZL4dDOTPKfS0_(ptr noundef %call22, ptr noundef %call23)
  store float %call24, ptr %q1, align 4
  %15 = load ptr, ptr %ub.addr, align 8
  %call25 = call noundef ptr @_ZNK9btVector3cvPKfEv(ptr noundef nonnull align 4 dereferenceable(16) %15)
  %call26 = call noundef ptr @_ZN9btVector3cvPfEv(ptr noundef nonnull align 4 dereferenceable(16) %p)
  %call27 = call noundef float @_ZL4dDOTPKfS0_(ptr noundef %call25, ptr noundef %call26)
  %fneg = fneg float %call27
  store float %fneg, ptr %q2, align 4
  %16 = load float, ptr %uaub, align 4
  %17 = load float, ptr %uaub, align 4
  %neg = fneg float %16
  %18 = call float @llvm.fmuladd.f32(float %neg, float %17, float 1.000000e+00)
  store float %18, ptr %d, align 4
  %19 = load float, ptr %d, align 4
  %cmp = fcmp ole float %19, 0x3F1A36E2E0000000
  br i1 %cmp, label %if.then, label %if.else

if.then:                                          ; preds = %entry
  %20 = load ptr, ptr %alpha.addr, align 8
  store float 0.000000e+00, ptr %20, align 4
  %21 = load ptr, ptr %beta.addr, align 8
  store float 0.000000e+00, ptr %21, align 4
  br label %if.end

if.else:                                          ; preds = %entry
  %22 = load float, ptr %d, align 4
  %div = fdiv float 1.000000e+00, %22
  store float %div, ptr %d, align 4
  %23 = load float, ptr %q1, align 4
  %24 = load float, ptr %uaub, align 4
  %25 = load float, ptr %q2, align 4
  %26 = call float @llvm.fmuladd.f32(float %24, float %25, float %23)
  %27 = load float, ptr %d, align 4
  %mul = fmul float %26, %27
  %28 = load ptr, ptr %alpha.addr, align 8
  store float %mul, ptr %28, align 4
  %29 = load float, ptr %uaub, align 4
  %30 = load float, ptr %q1, align 4
  %31 = load float, ptr %q2, align 4
  %32 = call float @llvm.fmuladd.f32(float %29, float %30, float %31)
  %33 = load float, ptr %d, align 4
  %mul29 = fmul float %32, %33
  %34 = load ptr, ptr %beta.addr, align 8
  store float %mul29, ptr %34, align 4
  br label %if.end

if.end:                                           ; preds = %if.else, %if.then
  ret void
}