; Function Attrs: mustprogress nofree norecurse nosync nounwind willreturn memory(argmem: readwrite) uwtable
define dso_local void @_Z20dLineClosestApproachRK9btVector3S1_S1_S1_PfS2_(ptr nocapture noundef nonnull readonly align 4 dereferenceable(16) %pa, ptr nocapture noundef nonnull readonly align 4 dereferenceable(16) %ua, ptr nocapture noundef nonnull readonly align 4 dereferenceable(16) %pb, ptr nocapture noundef nonnull readonly align 4 dereferenceable(16) %ub, ptr nocapture noundef writeonly %alpha, ptr nocapture noundef writeonly %beta) local_unnamed_addr #1 {
entry:
  %0 = load float, ptr %ua, align 4
  %1 = load float, ptr %ub, align 4
  %arrayidx2.i = getelementptr inbounds i8, ptr %ua, i64 4
  %2 = load float, ptr %arrayidx2.i, align 4
  %arrayidx3.i = getelementptr inbounds i8, ptr %ub, i64 4
  %3 = load float, ptr %arrayidx3.i, align 4
  %mul4.i = fmul float %2, %3
  %4 = tail call float @llvm.fmuladd.f32(float %0, float %1, float %mul4.i)
  %arrayidx5.i = getelementptr inbounds i8, ptr %ua, i64 8
  %5 = load float, ptr %arrayidx5.i, align 4
  %arrayidx6.i = getelementptr inbounds i8, ptr %ub, i64 8
  %6 = load float, ptr %arrayidx6.i, align 4
  %7 = tail call noundef float @llvm.fmuladd.f32(float %5, float %6, float %4)
  %neg = fneg float %7
  %8 = tail call float @llvm.fmuladd.f32(float %neg, float %7, float 1.000000e+00)
  %cmp = fcmp ugt float %8, 0x3F1A36E2E0000000
  br i1 %cmp, label %if.else, label %if.end

if.else:                                          ; preds = %entry
  %arrayidx13 = getelementptr inbounds i8, ptr %pb, i64 8
  %9 = load float, ptr %arrayidx13, align 4
  %arrayidx15 = getelementptr inbounds i8, ptr %pa, i64 8
  %10 = load float, ptr %arrayidx15, align 4
  %sub16 = fsub float %9, %10
  %11 = load float, ptr %pb, align 4
  %12 = load float, ptr %pa, align 4
  %sub = fsub float %11, %12
  %arrayidx6 = getelementptr inbounds i8, ptr %pb, i64 4
  %13 = load float, ptr %arrayidx6, align 4
  %arrayidx8 = getelementptr inbounds i8, ptr %pa, i64 4
  %14 = load float, ptr %arrayidx8, align 4
  %sub9 = fsub float %13, %14
  %mul4.i24 = fmul float %3, %sub9
  %15 = tail call float @llvm.fmuladd.f32(float %1, float %sub, float %mul4.i24)
  %16 = tail call noundef float @llvm.fmuladd.f32(float %6, float %sub16, float %15)
  %mul4.i19 = fmul float %2, %sub9
  %17 = tail call float @llvm.fmuladd.f32(float %0, float %sub, float %mul4.i19)
  %18 = tail call noundef float @llvm.fmuladd.f32(float %5, float %sub16, float %17)
  %fneg = fneg float %16
  %div = fdiv float 1.000000e+00, %8
  %19 = insertelement <2 x float> poison, float %7, i64 0
  %20 = shufflevector <2 x float> %19, <2 x float> poison, <2 x i32> zeroinitializer
  %21 = insertelement <2 x float> poison, float %fneg, i64 0
  %22 = insertelement <2 x float> %21, float %18, i64 1
  %23 = shufflevector <2 x float> %22, <2 x float> poison, <2 x i32> <i32 1, i32 0>
  %24 = tail call <2 x float> @llvm.fmuladd.v2f32(<2 x float> %20, <2 x float> %22, <2 x float> %23)
  %25 = insertelement <2 x float> poison, float %div, i64 0
  %26 = shufflevector <2 x float> %25, <2 x float> poison, <2 x i32> zeroinitializer
  %27 = fmul <2 x float> %26, %24
  br label %if.end

if.end:                                           ; preds = %entry, %if.else
  %28 = phi <2 x float> [ %27, %if.else ], [ zeroinitializer, %entry ]
  %29 = extractelement <2 x float> %28, i64 0
  store float %29, ptr %alpha, align 4
  %30 = extractelement <2 x float> %28, i64 1
  store float %30, ptr %beta, align 4
  ret void
}